; Function Attrs: nounwind uwtable
define dso_local ptr @getNewIncrAofName(ptr noundef captures(none) initializes((40, 44)) %0, i64 noundef %1) local_unnamed_addr #0 {
  %3 = tail call noalias noundef dereferenceable_or_null(40) ptr @zcalloc(i64 noundef 40) #19
  %4 = getelementptr inbounds nuw i8, ptr %3, i64 24
  %5 = getelementptr inbounds nuw i8, ptr %3, i64 32
  store i64 -1, ptr %5, align 8
  %6 = getelementptr inbounds nuw i8, ptr %3, i64 16
  store i32 105, ptr %6, align 8, !tbaa !15
  %7 = tail call ptr @sdsempty() #20
  %8 = load ptr, ptr getelementptr inbounds nuw (i8, ptr @server, i64 6528), align 8, !tbaa !33
  %9 = getelementptr inbounds nuw i8, ptr %0, i64 32
  %10 = load i64, ptr %9, align 8, !tbaa !69
  %11 = add nsw i64 %10, 1
  store i64 %11, ptr %9, align 8, !tbaa !69
  %12 = tail call ptr (ptr, ptr, ...) @sdscatprintf(ptr noundef %7, ptr noundef nonnull @.str.38, ptr noundef %8, i64 noundef %11, ptr noundef nonnull @.str.40, ptr noundef nonnull @.str.37) #20
  store ptr %12, ptr %3, align 8, !tbaa !6
  %13 = load i64, ptr %9, align 8, !tbaa !69
  %14 = getelementptr inbounds nuw i8, ptr %3, i64 8
  store i64 %13, ptr %14, align 8, !tbaa !14
  store i64 %1, ptr %4, align 8, !tbaa !16
  %15 = getelementptr inbounds nuw i8, ptr %0, i64 8
  %16 = load ptr, ptr %15, align 8, !tbaa !24
  %17 = tail call ptr @listAddNodeTail(ptr noundef %16, ptr noundef nonnull %3) #20
  %18 = getelementptr inbounds nuw i8, ptr %0, i64 40
  store i32 1, ptr %18, align 8, !tbaa !70
  %19 = load ptr, ptr %3, align 8, !tbaa !6
  ret ptr %19
}